target datalayout = "e-m:e-p270:32:32-p271:32:32-p272:64:64-i64:64-i128:128-f80:128-n8:16:32:64-S128"
target triple = "x86_64-pc-linux-gnu"

%struct.H5O_layout_chunk_t = type { i32, i8, i32, [33 x i32], i32, i32, i64, i64, [33 x i64], [33 x i64], [33 x i64], [33 x i64], %union.anon.0 }
%union.anon.0 = type { %struct.H5O_layout_chunk_earray_t }
%struct.H5O_layout_chunk_earray_t = type { %struct.anon.1, i32, [33 x i32], [33 x i64], [33 x i64] }
%struct.anon.1 = type { i8, i8, i8, i8, i8 }

@H5D_init_g = external global i8, align 1
@H5_libterm_g = external global i8, align 1

; Function Attrs: nounwind uwtable
define internal i32 @H5D__earray_idx_resize(ptr noundef %0) #0 {
  %2 = alloca ptr, align 8
  %3 = alloca [33 x i64], align 16
  %4 = alloca [33 x i64], align 16
  %5 = alloca i32, align 4
  %6 = alloca i64, align 8
  %7 = alloca i64, align 8
  store ptr %0, ptr %2, align 8, !tbaa !79
  %8 = load i8, ptr @H5D_init_g, align 1, !tbaa !14, !range !16, !noundef !17
  %9 = trunc i8 %8 to i1
  br i1 %9, label %14, label %10

10:                                               ; preds = %1
  %11 = load i8, ptr @H5_libterm_g, align 1, !tbaa !14, !range !16, !noundef !17
  %12 = trunc i8 %11 to i1
  %13 = xor i1 %12, true
  br label %14

14:                                               ; preds = %10, %1
  %15 = phi i1 [ true, %1 ], [ %13, %10 ]
  %16 = xor i1 %15, true
  %17 = xor i1 %16, true
  %18 = zext i1 %17 to i32
  %19 = sext i32 %18 to i64
  %20 = call i64 @llvm.expect.i64(i64 %19, i64 1)
  %21 = icmp ne i64 %20, 0
  br i1 %21, label %22, label %174

22:                                               ; preds = %14
  %23 = load ptr, ptr %2, align 8, !tbaa !79
  %24 = getelementptr inbounds nuw %struct.H5O_layout_chunk_t, ptr %23, i32 0, i32 12
  %25 = getelementptr inbounds nuw %struct.H5O_layout_chunk_earray_t, ptr %24, i32 0, i32 1
  %26 = load i32, ptr %25, align 8, !tbaa !26
  %27 = icmp ugt i32 %26, 0
  br i1 %27, label %28, label %173

28:                                               ; preds = %22
  call void @llvm.lifetime.start.p0(i64 264, ptr %3) #8
  call void @llvm.lifetime.start.p0(i64 264, ptr %4) #8
  %29 = load ptr, ptr %2, align 8, !tbaa !79
  %30 = getelementptr inbounds nuw %struct.H5O_layout_chunk_t, ptr %29, i32 0, i32 12
  %31 = getelementptr inbounds nuw %struct.H5O_layout_chunk_earray_t, ptr %30, i32 0, i32 2
  %32 = getelementptr inbounds [33 x i32], ptr %31, i64 0, i64 0
  %33 = load ptr, ptr %2, align 8, !tbaa !79
  %34 = getelementptr inbounds nuw %struct.H5O_layout_chunk_t, ptr %33, i32 0, i32 3
  %35 = getelementptr inbounds [33 x i32], ptr %34, i64 0, i64 0
  %36 = load ptr, ptr %2, align 8, !tbaa !79
  %37 = getelementptr inbounds nuw %struct.H5O_layout_chunk_t, ptr %36, i32 0, i32 2
  %38 = load i32, ptr %37, align 8, !tbaa !72
  %39 = sub i32 %38, 1
  %40 = zext i32 %39 to i64
  %41 = mul i64 %40, 4
  call void @llvm.memcpy.p0.p0.i64(ptr align 4 %32, ptr align 4 %35, i64 %41, i1 false)
  br label %42

42:                                               ; preds = %28
  %43 = load ptr, ptr %2, align 8, !tbaa !79
  %44 = getelementptr inbounds nuw %struct.H5O_layout_chunk_t, ptr %43, i32 0, i32 12
  %45 = getelementptr inbounds nuw %struct.H5O_layout_chunk_earray_t, ptr %44, i32 0, i32 1
  %46 = load i32, ptr %45, align 8, !tbaa !26
  %47 = icmp ne i32 0, %46
  br i1 %47, label %48, label %78

48:                                               ; preds = %42
  call void @llvm.lifetime.start.p0(i64 4, ptr %5) #8
  %49 = load ptr, ptr %2, align 8, !tbaa !79
  %50 = getelementptr inbounds nuw %struct.H5O_layout_chunk_t, ptr %49, i32 0, i32 12
  %51 = getelementptr inbounds nuw %struct.H5O_layout_chunk_earray_t, ptr %50, i32 0, i32 2
  %52 = load ptr, ptr %2, align 8, !tbaa !79
  %53 = getelementptr inbounds nuw %struct.H5O_layout_chunk_t, ptr %52, i32 0, i32 12
  %54 = getelementptr inbounds nuw %struct.H5O_layout_chunk_earray_t, ptr %53, i32 0, i32 1
  %55 = load i32, ptr %54, align 8, !tbaa !26
  %56 = zext i32 %55 to i64
  %57 = getelementptr inbounds nuw [33 x i32], ptr %51, i64 0, i64 %56
  %58 = load i32, ptr %57, align 4, !tbaa !26
  store i32 %58, ptr %5, align 4, !tbaa !12
  %59 = load ptr, ptr %2, align 8, !tbaa !79
  %60 = getelementptr inbounds nuw %struct.H5O_layout_chunk_t, ptr %59, i32 0, i32 12
  %61 = getelementptr inbounds nuw %struct.H5O_layout_chunk_earray_t, ptr %60, i32 0, i32 2
  %62 = getelementptr inbounds [33 x i32], ptr %61, i64 0, i64 1
  %63 = load ptr, ptr %2, align 8, !tbaa !79
  %64 = getelementptr inbounds nuw %struct.H5O_layout_chunk_t, ptr %63, i32 0, i32 12
  %65 = getelementptr inbounds nuw %struct.H5O_layout_chunk_earray_t, ptr %64, i32 0, i32 2
  %66 = getelementptr inbounds [33 x i32], ptr %65, i64 0, i64 0
  %67 = load ptr, ptr %2, align 8, !tbaa !79
  %68 = getelementptr inbounds nuw %struct.H5O_layout_chunk_t, ptr %67, i32 0, i32 12
  %69 = getelementptr inbounds nuw %struct.H5O_layout_chunk_earray_t, ptr %68, i32 0, i32 1
  %70 = load i32, ptr %69, align 8, !tbaa !26
  %71 = zext i32 %70 to i64
  %72 = mul i64 4, %71
  call void @llvm.memmove.p0.p0.i64(ptr align 4 %62, ptr align 4 %66, i64 %72, i1 false)
  %73 = load i32, ptr %5, align 4, !tbaa !12
  %74 = load ptr, ptr %2, align 8, !tbaa !79
  %75 = getelementptr inbounds nuw %struct.H5O_layout_chunk_t, ptr %74, i32 0, i32 12
  %76 = getelementptr inbounds nuw %struct.H5O_layout_chunk_earray_t, ptr %75, i32 0, i32 2
  %77 = getelementptr inbounds [33 x i32], ptr %76, i64 0, i64 0
  store i32 %73, ptr %77, align 4, !tbaa !26
  call void @llvm.lifetime.end.p0(i64 4, ptr %5) #8
  br label %78

78:                                               ; preds = %48, %42
  br label %79

79:                                               ; preds = %78
  br label %80

80:                                               ; preds = %79
  %81 = getelementptr inbounds [33 x i64], ptr %3, i64 0, i64 0
  %82 = load ptr, ptr %2, align 8, !tbaa !79
  %83 = getelementptr inbounds nuw %struct.H5O_layout_chunk_t, ptr %82, i32 0, i32 8
  %84 = getelementptr inbounds [33 x i64], ptr %83, i64 0, i64 0
  %85 = load ptr, ptr %2, align 8, !tbaa !79
  %86 = getelementptr inbounds nuw %struct.H5O_layout_chunk_t, ptr %85, i32 0, i32 2
  %87 = load i32, ptr %86, align 8, !tbaa !72
  %88 = sub i32 %87, 1
  %89 = zext i32 %88 to i64
  %90 = mul i64 %89, 8
  call void @llvm.memcpy.p0.p0.i64(ptr align 16 %81, ptr align 8 %84, i64 %90, i1 false)
  br label %91

91:                                               ; preds = %80
  %92 = load ptr, ptr %2, align 8, !tbaa !79
  %93 = getelementptr inbounds nuw %struct.H5O_layout_chunk_t, ptr %92, i32 0, i32 12
  %94 = getelementptr inbounds nuw %struct.H5O_layout_chunk_earray_t, ptr %93, i32 0, i32 1
  %95 = load i32, ptr %94, align 8, !tbaa !26
  %96 = icmp ne i32 0, %95
  br i1 %96, label %97, label %115

97:                                               ; preds = %91
  call void @llvm.lifetime.start.p0(i64 8, ptr %6) #8
  %98 = load ptr, ptr %2, align 8, !tbaa !79
  %99 = getelementptr inbounds nuw %struct.H5O_layout_chunk_t, ptr %98, i32 0, i32 12
  %100 = getelementptr inbounds nuw %struct.H5O_layout_chunk_earray_t, ptr %99, i32 0, i32 1
  %101 = load i32, ptr %100, align 8, !tbaa !26
  %102 = zext i32 %101 to i64
  %103 = getelementptr inbounds nuw [33 x i64], ptr %3, i64 0, i64 %102
  %104 = load i64, ptr %103, align 8, !tbaa !10
  store i64 %104, ptr %6, align 8, !tbaa !10
  %105 = getelementptr inbounds [33 x i64], ptr %3, i64 0, i64 1
  %106 = getelementptr inbounds [33 x i64], ptr %3, i64 0, i64 0
  %107 = load ptr, ptr %2, align 8, !tbaa !79
  %108 = getelementptr inbounds nuw %struct.H5O_layout_chunk_t, ptr %107, i32 0, i32 12
  %109 = getelementptr inbounds nuw %struct.H5O_layout_chunk_earray_t, ptr %108, i32 0, i32 1
  %110 = load i32, ptr %109, align 8, !tbaa !26
  %111 = zext i32 %110 to i64
  %112 = mul i64 8, %111
  call void @llvm.memmove.p0.p0.i64(ptr align 8 %105, ptr align 16 %106, i64 %112, i1 false)
  %113 = load i64, ptr %6, align 8, !tbaa !10
  %114 = getelementptr inbounds [33 x i64], ptr %3, i64 0, i64 0
  store i64 %113, ptr %114, align 16, !tbaa !10
  call void @llvm.lifetime.end.p0(i64 8, ptr %6) #8
  br label %115

115:                                              ; preds = %97, %91
  br label %116

116:                                              ; preds = %115
  br label %117

117:                                              ; preds = %116
  %118 = load ptr, ptr %2, align 8, !tbaa !79
  %119 = getelementptr inbounds nuw %struct.H5O_layout_chunk_t, ptr %118, i32 0, i32 2
  %120 = load i32, ptr %119, align 8, !tbaa !72
  %121 = sub i32 %120, 1
  %122 = getelementptr inbounds [33 x i64], ptr %3, i64 0, i64 0
  %123 = load ptr, ptr %2, align 8, !tbaa !79
  %124 = getelementptr inbounds nuw %struct.H5O_layout_chunk_t, ptr %123, i32 0, i32 12
  %125 = getelementptr inbounds nuw %struct.H5O_layout_chunk_earray_t, ptr %124, i32 0, i32 3
  %126 = getelementptr inbounds [33 x i64], ptr %125, i64 0, i64 0
  call void @H5VM_array_down(i32 noundef %121, ptr noundef %122, ptr noundef %126)
  %127 = getelementptr inbounds [33 x i64], ptr %4, i64 0, i64 0
  %128 = load ptr, ptr %2, align 8, !tbaa !79
  %129 = getelementptr inbounds nuw %struct.H5O_layout_chunk_t, ptr %128, i32 0, i32 9
  %130 = getelementptr inbounds [33 x i64], ptr %129, i64 0, i64 0
  %131 = load ptr, ptr %2, align 8, !tbaa !79
  %132 = getelementptr inbounds nuw %struct.H5O_layout_chunk_t, ptr %131, i32 0, i32 2
  %133 = load i32, ptr %132, align 8, !tbaa !72
  %134 = sub i32 %133, 1
  %135 = zext i32 %134 to i64
  %136 = mul i64 %135, 8
  call void @llvm.memcpy.p0.p0.i64(ptr align 16 %127, ptr align 8 %130, i64 %136, i1 false)
  br label %137

137:                                              ; preds = %117
  %138 = load ptr, ptr %2, align 8, !tbaa !79
  %139 = getelementptr inbounds nuw %struct.H5O_layout_chunk_t, ptr %138, i32 0, i32 12
  %140 = getelementptr inbounds nuw %struct.H5O_layout_chunk_earray_t, ptr %139, i32 0, i32 1
  %141 = load i32, ptr %140, align 8, !tbaa !26
  %142 = icmp ne i32 0, %141
  br i1 %142, label %143, label %161

143:                                              ; preds = %137
  call void @llvm.lifetime.start.p0(i64 8, ptr %7) #8
  %144 = load ptr, ptr %2, align 8, !tbaa !79
  %145 = getelementptr inbounds nuw %struct.H5O_layout_chunk_t, ptr %144, i32 0, i32 12
  %146 = getelementptr inbounds nuw %struct.H5O_layout_chunk_earray_t, ptr %145, i32 0, i32 1
  %147 = load i32, ptr %146, align 8, !tbaa !26
  %148 = zext i32 %147 to i64
  %149 = getelementptr inbounds nuw [33 x i64], ptr %4, i64 0, i64 %148
  %150 = load i64, ptr %149, align 8, !tbaa !10
  store i64 %150, ptr %7, align 8, !tbaa !10
  %151 = getelementptr inbounds [33 x i64], ptr %4, i64 0, i64 1
  %152 = getelementptr inbounds [33 x i64], ptr %4, i64 0, i64 0
  %153 = load ptr, ptr %2, align 8, !tbaa !79
  %154 = getelementptr inbounds nuw %struct.H5O_layout_chunk_t, ptr %153, i32 0, i32 12
  %155 = getelementptr inbounds nuw %struct.H5O_layout_chunk_earray_t, ptr %154, i32 0, i32 1
  %156 = load i32, ptr %155, align 8, !tbaa !26
  %157 = zext i32 %156 to i64
  %158 = mul i64 8, %157
  call void @llvm.memmove.p0.p0.i64(ptr align 8 %151, ptr align 16 %152, i64 %158, i1 false)
  %159 = load i64, ptr %7, align 8, !tbaa !10
  %160 = getelementptr inbounds [33 x i64], ptr %4, i64 0, i64 0
  store i64 %159, ptr %160, align 16, !tbaa !10
  call void @llvm.lifetime.end.p0(i64 8, ptr %7) #8
  br label %161

161:                                              ; preds = %143, %137
  br label %162

162:                                              ; preds = %161
  br label %163

163:                                              ; preds = %162
  %164 = load ptr, ptr %2, align 8, !tbaa !79
  %165 = getelementptr inbounds nuw %struct.H5O_layout_chunk_t, ptr %164, i32 0, i32 2
  %166 = load i32, ptr %165, align 8, !tbaa !72
  %167 = sub i32 %166, 1
  %168 = getelementptr inbounds [33 x i64], ptr %4, i64 0, i64 0
  %169 = load ptr, ptr %2, align 8, !tbaa !79
  %170 = getelementptr inbounds nuw %struct.H5O_layout_chunk_t, ptr %169, i32 0, i32 12
  %171 = getelementptr inbounds nuw %struct.H5O_layout_chunk_earray_t, ptr %170, i32 0, i32 4
  %172 = getelementptr inbounds [33 x i64], ptr %171, i64 0, i64 0
  call void @H5VM_array_down(i32 noundef %167, ptr noundef %168, ptr noundef %172)
  call void @llvm.lifetime.end.p0(i64 264, ptr %4) #8
  call void @llvm.lifetime.end.p0(i64 264, ptr %3) #8
  br label %173

173:                                              ; preds = %163, %22
  br label %174

174:                                              ; preds = %173, %14
  ret i32 0
}