; Function Attrs: nounwind uwtable
define internal noundef i32 @H5D__earray_idx_resize(ptr noundef %0) #0 {
  %2 = alloca [33 x i64], align 16
  %3 = alloca [33 x i64], align 16
  %4 = load i8, ptr @H5D_init_g, align 1, !tbaa !3, !range !7, !noundef !8
  %5 = trunc nuw i8 %4 to i1
  %6 = load i8, ptr @H5_libterm_g, align 1, !range !7
  %7 = trunc nuw i8 %6 to i1
  %8 = xor i1 %7, true
  %9 = select i1 %5, i1 true, i1 %8
  br i1 %9, label %10, label %47, !prof !9

10:                                               ; preds = %1
  %11 = getelementptr inbounds nuw i8, ptr %0, i64 1232
  %12 = load i32, ptr %11, align 8, !tbaa !21
  %.not = icmp eq i32 %12, 0
  br i1 %.not, label %47, label %13

13:                                               ; preds = %10
  call void @llvm.lifetime.start.p0(i64 264, ptr nonnull %2) #11
  call void @llvm.lifetime.start.p0(i64 264, ptr nonnull %3) #11
  %14 = getelementptr inbounds nuw i8, ptr %0, i64 1236
  %15 = getelementptr inbounds nuw i8, ptr %0, i64 12
  %16 = getelementptr inbounds nuw i8, ptr %0, i64 8
  %17 = load i32, ptr %16, align 8, !tbaa !59
  %18 = add i32 %17, -1
  %19 = zext i32 %18 to i64
  %20 = shl nuw nsw i64 %19, 2
  tail call void @llvm.memcpy.p0.p0.i64(ptr nonnull align 4 %14, ptr nonnull align 4 %15, i64 %20, i1 false)
  %21 = zext i32 %12 to i64
  %22 = getelementptr inbounds nuw [33 x i32], ptr %14, i64 0, i64 %21
  %23 = load i32, ptr %22, align 4, !tbaa !21
  %24 = getelementptr inbounds nuw i8, ptr %0, i64 1240
  %25 = shl nuw nsw i64 %21, 2
  tail call void @llvm.memmove.p0.p0.i64(ptr nonnull align 4 %24, ptr nonnull align 4 %14, i64 %25, i1 false)
  store i32 %23, ptr %14, align 4, !tbaa !21
  %26 = getelementptr inbounds nuw i8, ptr %0, i64 168
  %27 = shl nuw nsw i64 %19, 3
  call void @llvm.memcpy.p0.p0.i64(ptr nonnull align 16 %2, ptr nonnull align 8 %26, i64 %27, i1 false)
  %28 = getelementptr inbounds nuw [33 x i64], ptr %2, i64 0, i64 %21
  %29 = load i64, ptr %28, align 8, !tbaa !10
  %30 = getelementptr inbounds nuw i8, ptr %2, i64 8
  %31 = shl nuw nsw i64 %21, 3
  call void @llvm.memmove.p0.p0.i64(ptr nonnull align 8 %30, ptr nonnull align 16 %2, i64 %31, i1 false)
  store i64 %29, ptr %2, align 16, !tbaa !10
  %32 = getelementptr inbounds nuw i8, ptr %0, i64 1368
  call void @H5VM_array_down(i32 noundef %18, ptr noundef nonnull %2, ptr noundef nonnull %32) #11
  %33 = getelementptr inbounds nuw i8, ptr %0, i64 432
  %34 = load i32, ptr %16, align 8, !tbaa !59
  %35 = add i32 %34, -1
  %36 = zext i32 %35 to i64
  %37 = shl nuw nsw i64 %36, 3
  call void @llvm.memcpy.p0.p0.i64(ptr nonnull align 16 %3, ptr nonnull align 8 %33, i64 %37, i1 false)
  %38 = load i32, ptr %11, align 8, !tbaa !21
  %.not31 = icmp eq i32 %38, 0
  br i1 %.not31, label %45, label %39

39:                                               ; preds = %13
  %40 = zext i32 %38 to i64
  %41 = getelementptr inbounds nuw [33 x i64], ptr %3, i64 0, i64 %40
  %42 = load i64, ptr %41, align 8, !tbaa !10
  %43 = getelementptr inbounds nuw i8, ptr %3, i64 8
  %44 = shl nuw nsw i64 %40, 3
  call void @llvm.memmove.p0.p0.i64(ptr nonnull align 8 %43, ptr nonnull align 16 %3, i64 %44, i1 false)
  store i64 %42, ptr %3, align 16, !tbaa !10
  br label %45

45:                                               ; preds = %39, %13
  %46 = getelementptr inbounds nuw i8, ptr %0, i64 1632
  call void @H5VM_array_down(i32 noundef %35, ptr noundef nonnull %3, ptr noundef nonnull %46) #11
  call void @llvm.lifetime.end.p0(i64 264, ptr nonnull %3) #11
  call void @llvm.lifetime.end.p0(i64 264, ptr nonnull %2) #11
  br label %47

47:                                               ; preds = %10, %45, %1
  ret i32 0
}